target datalayout = "e-m:e-p270:32:32-p271:32:32-p272:64:64-i64:64-i128:128-f80:128-n8:16:32:64-S128"
target triple = "x86_64-pc-linux-gnu"

%struct.AVFilterContext = type { ptr, ptr, ptr, ptr, ptr, i32, ptr, ptr, i32, ptr, ptr, i32, i32, ptr, ptr, ptr, ptr, i32, ptr, i32, i32 }
%struct.VAAPIVPPContext = type { ptr, ptr, ptr, i32, i32, i32, ptr, ptr, %struct._VARectangle, i32, i32, i32, [10 x i32], i32, i32, ptr, ptr }
%struct._VARectangle = type { i16, i16, i16, i16 }
%struct.ScaleVAAPIContext = type { %struct.VAAPIVPPContext, ptr, i32, ptr, ptr, i32, i32, i32, ptr, ptr, ptr, i32, ptr, i32, i32, i32, i32 }
%struct.AVFilterLink = type { ptr, ptr, ptr, ptr, i32, i32, i32, i32, %struct.AVRational, i32, i32, i32, %struct.AVChannelLayout, %struct.AVRational, ptr, i32, %struct.AVFilterFormatsConfig, %struct.AVFilterFormatsConfig }
%struct.AVChannelLayout = type { i32, i32, %union.anon.1, ptr }
%union.anon.1 = type { i64 }
%struct.AVRational = type { i32, i32 }
%struct.AVFilterFormatsConfig = type { ptr, ptr, ptr, ptr, ptr }
%struct.AVHWFramesContext = type { ptr, ptr, ptr, ptr, ptr, ptr, ptr, i32, i32, i32, i32, i32 }

; Function Attrs: nounwind uwtable
define internal i32 @scale_vaapi_config_output(ptr noundef %0) #2 {
  %2 = alloca i32, align 4
  %3 = alloca ptr, align 8
  %4 = alloca ptr, align 8
  %5 = alloca ptr, align 8
  %6 = alloca ptr, align 8
  %7 = alloca ptr, align 8
  %8 = alloca double, align 8
  %9 = alloca i32, align 4
  %10 = alloca i32, align 4
  %11 = alloca %struct.AVRational, align 4
  %12 = alloca %struct.AVRational, align 4
  %13 = alloca %struct.AVRational, align 4
  store ptr %0, ptr %3, align 8, !tbaa !44
  call void @llvm.lifetime.start.p0(i64 8, ptr %4) #6
  %14 = load ptr, ptr %3, align 8, !tbaa !44
  %15 = getelementptr inbounds nuw %struct.AVFilterLink, ptr %14, i32 0, i32 0
  %16 = load ptr, ptr %15, align 8, !tbaa !84
  %17 = getelementptr inbounds nuw %struct.AVFilterContext, ptr %16, i32 0, i32 4
  %18 = load ptr, ptr %17, align 8, !tbaa !85
  %19 = getelementptr inbounds ptr, ptr %18, i64 0
  %20 = load ptr, ptr %19, align 8, !tbaa !44
  store ptr %20, ptr %4, align 8, !tbaa !44
  call void @llvm.lifetime.start.p0(i64 8, ptr %5) #6
  %21 = load ptr, ptr %3, align 8, !tbaa !44
  %22 = getelementptr inbounds nuw %struct.AVFilterLink, ptr %21, i32 0, i32 0
  %23 = load ptr, ptr %22, align 8, !tbaa !84
  store ptr %23, ptr %5, align 8, !tbaa !4
  call void @llvm.lifetime.start.p0(i64 8, ptr %6) #6
  %24 = load ptr, ptr %5, align 8, !tbaa !4
  %25 = getelementptr inbounds nuw %struct.AVFilterContext, ptr %24, i32 0, i32 9
  %26 = load ptr, ptr %25, align 8, !tbaa !9
  store ptr %26, ptr %6, align 8, !tbaa !22
  call void @llvm.lifetime.start.p0(i64 8, ptr %7) #6
  %27 = load ptr, ptr %5, align 8, !tbaa !4
  %28 = getelementptr inbounds nuw %struct.AVFilterContext, ptr %27, i32 0, i32 9
  %29 = load ptr, ptr %28, align 8, !tbaa !9
  store ptr %29, ptr %7, align 8, !tbaa !24
  call void @llvm.lifetime.start.p0(i64 8, ptr %8) #6
  store double 1.000000e+00, ptr %8, align 8, !tbaa !86
  call void @llvm.lifetime.start.p0(i64 4, ptr %9) #6
  %30 = load ptr, ptr %7, align 8, !tbaa !24
  %31 = load ptr, ptr %7, align 8, !tbaa !24
  %32 = getelementptr inbounds nuw %struct.ScaleVAAPIContext, ptr %31, i32 0, i32 3
  %33 = load ptr, ptr %32, align 8, !tbaa !88
  %34 = load ptr, ptr %7, align 8, !tbaa !24
  %35 = getelementptr inbounds nuw %struct.ScaleVAAPIContext, ptr %34, i32 0, i32 4
  %36 = load ptr, ptr %35, align 8, !tbaa !89
  %37 = load ptr, ptr %4, align 8, !tbaa !44
  %38 = load ptr, ptr %3, align 8, !tbaa !44
  %39 = load ptr, ptr %6, align 8, !tbaa !22
  %40 = getelementptr inbounds nuw %struct.VAAPIVPPContext, ptr %39, i32 0, i32 10
  %41 = load ptr, ptr %6, align 8, !tbaa !22
  %42 = getelementptr inbounds nuw %struct.VAAPIVPPContext, ptr %41, i32 0, i32 11
  %43 = call i32 @ff_scale_eval_dimensions(ptr noundef %30, ptr noundef %33, ptr noundef %36, ptr noundef %37, ptr noundef %38, ptr noundef %40, ptr noundef %42)
  store i32 %43, ptr %9, align 4, !tbaa !36
  %44 = icmp slt i32 %43, 0
  br i1 %44, label %45, label %47

45:                                               ; preds = %1
  %46 = load i32, ptr %9, align 4, !tbaa !36
  store i32 %46, ptr %2, align 4
  store i32 1, ptr %10, align 4
  br label %199

47:                                               ; preds = %1
  %48 = load ptr, ptr %7, align 8, !tbaa !24
  %49 = getelementptr inbounds nuw %struct.ScaleVAAPIContext, ptr %48, i32 0, i32 7
  %50 = load i32, ptr %49, align 8, !tbaa !90
  %51 = icmp ne i32 %50, 0
  br i1 %51, label %52, label %73

52:                                               ; preds = %47
  %53 = load ptr, ptr %4, align 8, !tbaa !44
  %54 = getelementptr inbounds nuw %struct.AVFilterLink, ptr %53, i32 0, i32 8
  %55 = getelementptr inbounds nuw %struct.AVRational, ptr %54, i32 0, i32 0
  %56 = load i32, ptr %55, align 8, !tbaa !91
  %57 = icmp ne i32 %56, 0
  br i1 %57, label %58, label %70

58:                                               ; preds = %52
  %59 = load ptr, ptr %4, align 8, !tbaa !44
  %60 = getelementptr inbounds nuw %struct.AVFilterLink, ptr %59, i32 0, i32 8
  %61 = getelementptr inbounds nuw %struct.AVRational, ptr %60, i32 0, i32 0
  %62 = load i32, ptr %61, align 8, !tbaa !91
  %63 = sitofp i32 %62 to double
  %64 = load ptr, ptr %4, align 8, !tbaa !44
  %65 = getelementptr inbounds nuw %struct.AVFilterLink, ptr %64, i32 0, i32 8
  %66 = getelementptr inbounds nuw %struct.AVRational, ptr %65, i32 0, i32 1
  %67 = load i32, ptr %66, align 4, !tbaa !92
  %68 = sitofp i32 %67 to double
  %69 = fdiv nsz double %63, %68
  br label %71

70:                                               ; preds = %52
  br label %71

71:                                               ; preds = %70, %58
  %72 = phi nsz double [ %69, %58 ], [ 1.000000e+00, %70 ]
  store double %72, ptr %8, align 8, !tbaa !86
  br label %73

73:                                               ; preds = %71, %47
  %74 = load ptr, ptr %4, align 8, !tbaa !44
  %75 = load ptr, ptr %6, align 8, !tbaa !22
  %76 = getelementptr inbounds nuw %struct.VAAPIVPPContext, ptr %75, i32 0, i32 10
  %77 = load ptr, ptr %6, align 8, !tbaa !22
  %78 = getelementptr inbounds nuw %struct.VAAPIVPPContext, ptr %77, i32 0, i32 11
  %79 = load ptr, ptr %7, align 8, !tbaa !24
  %80 = getelementptr inbounds nuw %struct.ScaleVAAPIContext, ptr %79, i32 0, i32 5
  %81 = load i32, ptr %80, align 8, !tbaa !93
  %82 = load ptr, ptr %7, align 8, !tbaa !24
  %83 = getelementptr inbounds nuw %struct.ScaleVAAPIContext, ptr %82, i32 0, i32 6
  %84 = load i32, ptr %83, align 4, !tbaa !94
  %85 = load double, ptr %8, align 8, !tbaa !86
  %86 = call i32 @ff_scale_adjust_dimensions(ptr noundef %74, ptr noundef %76, ptr noundef %78, i32 noundef %81, i32 noundef %84, double noundef %85)
  %87 = load ptr, ptr %4, align 8, !tbaa !44
  %88 = getelementptr inbounds nuw %struct.AVFilterLink, ptr %87, i32 0, i32 6
  %89 = load i32, ptr %88, align 8, !tbaa !95
  %90 = load ptr, ptr %6, align 8, !tbaa !22
  %91 = getelementptr inbounds nuw %struct.VAAPIVPPContext, ptr %90, i32 0, i32 10
  %92 = load i32, ptr %91, align 4, !tbaa !68
  %93 = icmp eq i32 %89, %92
  br i1 %93, label %94, label %145

94:                                               ; preds = %73
  %95 = load ptr, ptr %4, align 8, !tbaa !44
  %96 = getelementptr inbounds nuw %struct.AVFilterLink, ptr %95, i32 0, i32 7
  %97 = load i32, ptr %96, align 4, !tbaa !96
  %98 = load ptr, ptr %6, align 8, !tbaa !22
  %99 = getelementptr inbounds nuw %struct.VAAPIVPPContext, ptr %98, i32 0, i32 11
  %100 = load i32, ptr %99, align 8, !tbaa !69
  %101 = icmp eq i32 %97, %100
  br i1 %101, label %102, label %145

102:                                              ; preds = %94
  %103 = load ptr, ptr %6, align 8, !tbaa !22
  %104 = getelementptr inbounds nuw %struct.VAAPIVPPContext, ptr %103, i32 0, i32 7
  %105 = load ptr, ptr %104, align 8, !tbaa !97
  %106 = getelementptr inbounds nuw %struct.AVHWFramesContext, ptr %105, i32 0, i32 9
  %107 = load i32, ptr %106, align 8, !tbaa !98
  %108 = load ptr, ptr %6, align 8, !tbaa !22
  %109 = getelementptr inbounds nuw %struct.VAAPIVPPContext, ptr %108, i32 0, i32 9
  %110 = load i32, ptr %109, align 8, !tbaa !34
  %111 = icmp eq i32 %107, %110
  br i1 %111, label %117, label %112

112:                                              ; preds = %102
  %113 = load ptr, ptr %6, align 8, !tbaa !22
  %114 = getelementptr inbounds nuw %struct.VAAPIVPPContext, ptr %113, i32 0, i32 9
  %115 = load i32, ptr %114, align 8, !tbaa !34
  %116 = icmp eq i32 %115, -1
  br i1 %116, label %117, label %145

117:                                              ; preds = %112, %102
  %118 = load ptr, ptr %7, align 8, !tbaa !24
  %119 = getelementptr inbounds nuw %struct.ScaleVAAPIContext, ptr %118, i32 0, i32 13
  %120 = load i32, ptr %119, align 8, !tbaa !37
  %121 = icmp eq i32 %120, 2
  br i1 %121, label %122, label %145

122:                                              ; preds = %117
  %123 = load ptr, ptr %7, align 8, !tbaa !24
  %124 = getelementptr inbounds nuw %struct.ScaleVAAPIContext, ptr %123, i32 0, i32 14
  %125 = load i32, ptr %124, align 4, !tbaa !39
  %126 = icmp eq i32 %125, 2
  br i1 %126, label %127, label %145

127:                                              ; preds = %122
  %128 = load ptr, ptr %7, align 8, !tbaa !24
  %129 = getelementptr inbounds nuw %struct.ScaleVAAPIContext, ptr %128, i32 0, i32 15
  %130 = load i32, ptr %129, align 8, !tbaa !41
  %131 = icmp eq i32 %130, 2
  br i1 %131, label %132, label %145

132:                                              ; preds = %127
  %133 = load ptr, ptr %7, align 8, !tbaa !24
  %134 = getelementptr inbounds nuw %struct.ScaleVAAPIContext, ptr %133, i32 0, i32 11
  %135 = load i32, ptr %134, align 8, !tbaa !73
  %136 = icmp eq i32 %135, 0
  br i1 %136, label %137, label %145

137:                                              ; preds = %132
  %138 = load ptr, ptr %7, align 8, !tbaa !24
  %139 = getelementptr inbounds nuw %struct.ScaleVAAPIContext, ptr %138, i32 0, i32 16
  %140 = load i32, ptr %139, align 4, !tbaa !43
  %141 = icmp eq i32 %140, 0
  br i1 %141, label %142, label %145

142:                                              ; preds = %137
  %143 = load ptr, ptr %6, align 8, !tbaa !22
  %144 = getelementptr inbounds nuw %struct.VAAPIVPPContext, ptr %143, i32 0, i32 14
  store i32 1, ptr %144, align 8, !tbaa !66
  br label %145

145:                                              ; preds = %142, %137, %132, %127, %122, %117, %112, %94, %73
  %146 = load ptr, ptr %3, align 8, !tbaa !44
  %147 = call i32 @ff_vaapi_vpp_config_output(ptr noundef %146)
  store i32 %147, ptr %9, align 4, !tbaa !36
  %148 = load i32, ptr %9, align 4, !tbaa !36
  %149 = icmp slt i32 %148, 0
  br i1 %149, label %150, label %152

150:                                              ; preds = %145
  %151 = load i32, ptr %9, align 4, !tbaa !36
  store i32 %151, ptr %2, align 4
  store i32 1, ptr %10, align 4
  br label %199

152:                                              ; preds = %145
  %153 = load ptr, ptr %7, align 8, !tbaa !24
  %154 = getelementptr inbounds nuw %struct.ScaleVAAPIContext, ptr %153, i32 0, i32 7
  %155 = load i32, ptr %154, align 8, !tbaa !90
  %156 = icmp ne i32 %155, 0
  br i1 %156, label %157, label %162

157:                                              ; preds = %152
  %158 = load ptr, ptr %3, align 8, !tbaa !44
  %159 = getelementptr inbounds nuw %struct.AVFilterLink, ptr %158, i32 0, i32 8
  %160 = getelementptr inbounds nuw %struct.AVRational, ptr %11, i32 0, i32 0
  store i32 1, ptr %160, align 4, !tbaa !102
  %161 = getelementptr inbounds nuw %struct.AVRational, ptr %11, i32 0, i32 1
  store i32 1, ptr %161, align 4, !tbaa !103
  call void @llvm.memcpy.p0.p0.i64(ptr align 8 %159, ptr align 4 %11, i64 8, i1 false), !tbaa.struct !104
  br label %198

162:                                              ; preds = %152
  %163 = load ptr, ptr %4, align 8, !tbaa !44
  %164 = getelementptr inbounds nuw %struct.AVFilterLink, ptr %163, i32 0, i32 8
  %165 = getelementptr inbounds nuw %struct.AVRational, ptr %164, i32 0, i32 0
  %166 = load i32, ptr %165, align 8, !tbaa !91
  %167 = icmp ne i32 %166, 0
  br i1 %167, label %168, label %192

168:                                              ; preds = %162
  %169 = load ptr, ptr %3, align 8, !tbaa !44
  %170 = getelementptr inbounds nuw %struct.AVFilterLink, ptr %169, i32 0, i32 8
  call void @llvm.lifetime.start.p0(i64 8, ptr %12) #6
  %171 = getelementptr inbounds nuw %struct.AVRational, ptr %13, i32 0, i32 0
  %172 = load ptr, ptr %3, align 8, !tbaa !44
  %173 = getelementptr inbounds nuw %struct.AVFilterLink, ptr %172, i32 0, i32 7
  %174 = load i32, ptr %173, align 4, !tbaa !96
  %175 = load ptr, ptr %4, align 8, !tbaa !44
  %176 = getelementptr inbounds nuw %struct.AVFilterLink, ptr %175, i32 0, i32 6
  %177 = load i32, ptr %176, align 8, !tbaa !95
  %178 = mul nsw i32 %174, %177
  store i32 %178, ptr %171, align 4, !tbaa !102
  %179 = getelementptr inbounds nuw %struct.AVRational, ptr %13, i32 0, i32 1
  %180 = load ptr, ptr %3, align 8, !tbaa !44
  %181 = getelementptr inbounds nuw %struct.AVFilterLink, ptr %180, i32 0, i32 6
  %182 = load i32, ptr %181, align 8, !tbaa !95
  %183 = load ptr, ptr %4, align 8, !tbaa !44
  %184 = getelementptr inbounds nuw %struct.AVFilterLink, ptr %183, i32 0, i32 7
  %185 = load i32, ptr %184, align 4, !tbaa !96
  %186 = mul nsw i32 %182, %185
  store i32 %186, ptr %179, align 4, !tbaa !103
  %187 = load ptr, ptr %4, align 8, !tbaa !44
  %188 = getelementptr inbounds nuw %struct.AVFilterLink, ptr %187, i32 0, i32 8
  %189 = load i64, ptr %13, align 4
  %190 = load i64, ptr %188, align 8
  %191 = call i64 @av_mul_q(i64 %189, i64 %190) #7
  store i64 %191, ptr %12, align 4
  call void @llvm.memcpy.p0.p0.i64(ptr align 8 %170, ptr align 4 %12, i64 8, i1 false), !tbaa.struct !104
  call void @llvm.lifetime.end.p0(i64 8, ptr %12) #6
  br label %197

192:                                              ; preds = %162
  %193 = load ptr, ptr %3, align 8, !tbaa !44
  %194 = getelementptr inbounds nuw %struct.AVFilterLink, ptr %193, i32 0, i32 8
  %195 = load ptr, ptr %4, align 8, !tbaa !44
  %196 = getelementptr inbounds nuw %struct.AVFilterLink, ptr %195, i32 0, i32 8
  call void @llvm.memcpy.p0.p0.i64(ptr align 8 %194, ptr align 8 %196, i64 8, i1 false), !tbaa.struct !104
  br label %197

197:                                              ; preds = %192, %168
  br label %198

198:                                              ; preds = %197, %157
  store i32 0, ptr %2, align 4
  store i32 1, ptr %10, align 4
  br label %199

199:                                              ; preds = %198, %150, %45
  call void @llvm.lifetime.end.p0(i64 4, ptr %9) #6
  call void @llvm.lifetime.end.p0(i64 8, ptr %8) #6
  call void @llvm.lifetime.end.p0(i64 8, ptr %7) #6
  call void @llvm.lifetime.end.p0(i64 8, ptr %6) #6
  call void @llvm.lifetime.end.p0(i64 8, ptr %5) #6
  call void @llvm.lifetime.end.p0(i64 8, ptr %4) #6
  %200 = load i32, ptr %2, align 4
  ret i32 %200
}