; Function Attrs: nounwind uwtable
define internal range(i32 -2147483648, 1) i32 @scale_vaapi_config_output(ptr noundef %0) #2 {
  %2 = load ptr, ptr %0, align 8, !tbaa !78
  %3 = getelementptr inbounds nuw i8, ptr %2, i64 32
  %4 = load ptr, ptr %3, align 8, !tbaa !79
  %5 = load ptr, ptr %4, align 8, !tbaa !49
  %6 = getelementptr inbounds nuw i8, ptr %2, i64 72
  %7 = load ptr, ptr %6, align 8, !tbaa !4
  %8 = getelementptr inbounds nuw i8, ptr %7, i64 160
  %9 = load ptr, ptr %8, align 8, !tbaa !80
  %10 = getelementptr inbounds nuw i8, ptr %7, i64 168
  %11 = load ptr, ptr %10, align 8, !tbaa !81
  %12 = getelementptr inbounds nuw i8, ptr %7, i64 68
  %13 = getelementptr inbounds nuw i8, ptr %7, i64 72
  %14 = tail call i32 @ff_scale_eval_dimensions(ptr noundef %7, ptr noundef %9, ptr noundef %11, ptr noundef %5, ptr noundef nonnull %0, ptr noundef nonnull %12, ptr noundef nonnull %13) #6
  %15 = icmp slt i32 %14, 0
  br i1 %15, label %99, label %16

16:                                               ; preds = %1
  %17 = getelementptr inbounds nuw i8, ptr %7, i64 184
  %18 = load i32, ptr %17, align 8, !tbaa !82
  %.not = icmp eq i32 %18, 0
  br i1 %.not, label %28, label %19

19:                                               ; preds = %16
  %20 = getelementptr inbounds nuw i8, ptr %5, i64 48
  %21 = load i32, ptr %20, align 8, !tbaa !83
  %.not57 = icmp eq i32 %21, 0
  br i1 %.not57, label %28, label %22

22:                                               ; preds = %19
  %23 = sitofp i32 %21 to double
  %24 = getelementptr inbounds nuw i8, ptr %5, i64 52
  %25 = load i32, ptr %24, align 4, !tbaa !84
  %26 = sitofp i32 %25 to double
  %27 = fdiv nsz double %23, %26
  br label %28

28:                                               ; preds = %22, %19, %16
  %.052 = phi nsz double [ 1.000000e+00, %16 ], [ %27, %22 ], [ 1.000000e+00, %19 ]
  %29 = getelementptr inbounds nuw i8, ptr %7, i64 176
  %30 = load i32, ptr %29, align 8, !tbaa !85
  %31 = getelementptr inbounds nuw i8, ptr %7, i64 180
  %32 = load i32, ptr %31, align 4, !tbaa !86
  %33 = tail call i32 @ff_scale_adjust_dimensions(ptr noundef %5, ptr noundef nonnull %12, ptr noundef nonnull %13, i32 noundef %30, i32 noundef %32, double noundef %.052) #6
  %34 = getelementptr inbounds nuw i8, ptr %5, i64 40
  %35 = load i32, ptr %34, align 8, !tbaa !87
  %36 = load i32, ptr %12, align 4, !tbaa !62
  %37 = icmp eq i32 %35, %36
  br i1 %37, label %38, label %74

38:                                               ; preds = %28
  %39 = getelementptr inbounds nuw i8, ptr %5, i64 44
  %40 = load i32, ptr %39, align 4, !tbaa !88
  %41 = load i32, ptr %13, align 8, !tbaa !63
  %42 = icmp eq i32 %40, %41
  br i1 %42, label %43, label %74

43:                                               ; preds = %38
  %44 = getelementptr inbounds nuw i8, ptr %7, i64 48
  %45 = load ptr, ptr %44, align 8, !tbaa !89
  %46 = getelementptr inbounds nuw i8, ptr %45, i64 64
  %47 = load i32, ptr %46, align 8, !tbaa !90
  %48 = getelementptr inbounds nuw i8, ptr %7, i64 64
  %49 = load i32, ptr %48, align 8, !tbaa !28
  %50 = icmp eq i32 %47, %49
  %51 = icmp eq i32 %49, -1
  %or.cond = or i1 %50, %51
  br i1 %or.cond, label %52, label %74

52:                                               ; preds = %43
  %53 = getelementptr inbounds nuw i8, ptr %7, i64 232
  %54 = load i32, ptr %53, align 8, !tbaa !30
  %55 = icmp eq i32 %54, 2
  br i1 %55, label %56, label %74

56:                                               ; preds = %52
  %57 = getelementptr inbounds nuw i8, ptr %7, i64 236
  %58 = load i32, ptr %57, align 4, !tbaa !32
  %59 = icmp eq i32 %58, 2
  br i1 %59, label %60, label %74

60:                                               ; preds = %56
  %61 = getelementptr inbounds nuw i8, ptr %7, i64 240
  %62 = load i32, ptr %61, align 8, !tbaa !34
  %63 = icmp eq i32 %62, 2
  br i1 %63, label %64, label %74

64:                                               ; preds = %60
  %65 = getelementptr inbounds nuw i8, ptr %7, i64 216
  %66 = load i32, ptr %65, align 8, !tbaa !67
  %67 = icmp eq i32 %66, 0
  br i1 %67, label %68, label %74

68:                                               ; preds = %64
  %69 = getelementptr inbounds nuw i8, ptr %7, i64 244
  %70 = load i32, ptr %69, align 4, !tbaa !36
  %71 = icmp eq i32 %70, 0
  br i1 %71, label %72, label %74

72:                                               ; preds = %68
  %73 = getelementptr inbounds nuw i8, ptr %7, i64 120
  store i32 1, ptr %73, align 8, !tbaa !60
  br label %74

74:                                               ; preds = %43, %72, %68, %64, %60, %56, %52, %38, %28
  %75 = tail call i32 @ff_vaapi_vpp_config_output(ptr noundef nonnull %0) #6
  %76 = icmp slt i32 %75, 0
  br i1 %76, label %99, label %77

77:                                               ; preds = %74
  %78 = load i32, ptr %17, align 8, !tbaa !82
  %.not58 = icmp eq i32 %78, 0
  br i1 %.not58, label %81, label %79

79:                                               ; preds = %77
  %80 = getelementptr inbounds nuw i8, ptr %0, i64 48
  store i32 1, ptr %80, align 8, !tbaa !94
  %.sroa.23.0..sroa_idx = getelementptr inbounds nuw i8, ptr %0, i64 52
  store i32 1, ptr %.sroa.23.0..sroa_idx, align 4, !tbaa !94
  br label %99

81:                                               ; preds = %77
  %82 = getelementptr inbounds nuw i8, ptr %5, i64 48
  %83 = load i32, ptr %82, align 8, !tbaa !83
  %.not59 = icmp eq i32 %83, 0
  %84 = getelementptr inbounds nuw i8, ptr %0, i64 48
  br i1 %.not59, label %97, label %85

85:                                               ; preds = %81
  %86 = getelementptr inbounds nuw i8, ptr %0, i64 44
  %87 = load i32, ptr %86, align 4, !tbaa !88
  %88 = load i32, ptr %34, align 8, !tbaa !87
  %89 = mul nsw i32 %88, %87
  %90 = getelementptr inbounds nuw i8, ptr %0, i64 40
  %91 = load i32, ptr %90, align 8, !tbaa !87
  %92 = getelementptr inbounds nuw i8, ptr %5, i64 44
  %93 = load i32, ptr %92, align 4, !tbaa !88
  %94 = mul nsw i32 %93, %91
  %.sroa.2.0.insert.ext = zext i32 %94 to i64
  %.sroa.2.0.insert.shift = shl nuw i64 %.sroa.2.0.insert.ext, 32
  %.sroa.0.0.insert.ext = zext i32 %89 to i64
  %.sroa.0.0.insert.insert = or disjoint i64 %.sroa.2.0.insert.shift, %.sroa.0.0.insert.ext
  %95 = load i64, ptr %82, align 8
  %96 = tail call i64 @av_mul_q(i64 %.sroa.0.0.insert.insert, i64 %95) #7
  store i64 %96, ptr %84, align 8
  br label %99

97:                                               ; preds = %81
  %98 = load i64, ptr %82, align 8
  store i64 %98, ptr %84, align 8
  br label %99

99:                                               ; preds = %79, %97, %85, %74, %1
  %.0 = phi i32 [ %14, %1 ], [ %75, %74 ], [ 0, %85 ], [ 0, %97 ], [ 0, %79 ]
  ret i32 %.0
}